target datalayout = "e-m:e-p270:32:32-p271:32:32-p272:64:64-i64:64-i128:128-f80:128-n8:16:32:64-S128"
target triple = "x86_64-pc-linux-gnu"

; Function Attrs: nounwind uwtable
define internal void @vp8_luma_dc_wht_c(ptr noundef %0, ptr noundef %1) #1 {
  %3 = alloca ptr, align 8
  %4 = alloca ptr, align 8
  %5 = alloca i32, align 4
  %6 = alloca i32, align 4
  %7 = alloca i32, align 4
  %8 = alloca i32, align 4
  %9 = alloca i32, align 4
  store ptr %0, ptr %3, align 8, !tbaa !134
  store ptr %1, ptr %4, align 8, !tbaa !134
  call void @llvm.lifetime.start.p0(i64 4, ptr %5) #6
  call void @llvm.lifetime.start.p0(i64 4, ptr %6) #6
  call void @llvm.lifetime.start.p0(i64 4, ptr %7) #6
  call void @llvm.lifetime.start.p0(i64 4, ptr %8) #6
  call void @llvm.lifetime.start.p0(i64 4, ptr %9) #6
  store i32 0, ptr %5, align 4, !tbaa !14
  br label %10

10:                                               ; preds = %110, %2
  %11 = load i32, ptr %5, align 4, !tbaa !14
  %12 = icmp slt i32 %11, 4
  br i1 %12, label %13, label %113

13:                                               ; preds = %10
  %14 = load ptr, ptr %4, align 8, !tbaa !134
  %15 = load i32, ptr %5, align 4, !tbaa !14
  %16 = add nsw i32 0, %15
  %17 = sext i32 %16 to i64
  %18 = getelementptr inbounds i16, ptr %14, i64 %17
  %19 = load i16, ptr %18, align 2, !tbaa !136
  %20 = sext i16 %19 to i32
  %21 = load ptr, ptr %4, align 8, !tbaa !134
  %22 = load i32, ptr %5, align 4, !tbaa !14
  %23 = add nsw i32 12, %22
  %24 = sext i32 %23 to i64
  %25 = getelementptr inbounds i16, ptr %21, i64 %24
  %26 = load i16, ptr %25, align 2, !tbaa !136
  %27 = sext i16 %26 to i32
  %28 = add nsw i32 %20, %27
  store i32 %28, ptr %6, align 4, !tbaa !14
  %29 = load ptr, ptr %4, align 8, !tbaa !134
  %30 = load i32, ptr %5, align 4, !tbaa !14
  %31 = add nsw i32 4, %30
  %32 = sext i32 %31 to i64
  %33 = getelementptr inbounds i16, ptr %29, i64 %32
  %34 = load i16, ptr %33, align 2, !tbaa !136
  %35 = sext i16 %34 to i32
  %36 = load ptr, ptr %4, align 8, !tbaa !134
  %37 = load i32, ptr %5, align 4, !tbaa !14
  %38 = add nsw i32 8, %37
  %39 = sext i32 %38 to i64
  %40 = getelementptr inbounds i16, ptr %36, i64 %39
  %41 = load i16, ptr %40, align 2, !tbaa !136
  %42 = sext i16 %41 to i32
  %43 = add nsw i32 %35, %42
  store i32 %43, ptr %7, align 4, !tbaa !14
  %44 = load ptr, ptr %4, align 8, !tbaa !134
  %45 = load i32, ptr %5, align 4, !tbaa !14
  %46 = add nsw i32 4, %45
  %47 = sext i32 %46 to i64
  %48 = getelementptr inbounds i16, ptr %44, i64 %47
  %49 = load i16, ptr %48, align 2, !tbaa !136
  %50 = sext i16 %49 to i32
  %51 = load ptr, ptr %4, align 8, !tbaa !134
  %52 = load i32, ptr %5, align 4, !tbaa !14
  %53 = add nsw i32 8, %52
  %54 = sext i32 %53 to i64
  %55 = getelementptr inbounds i16, ptr %51, i64 %54
  %56 = load i16, ptr %55, align 2, !tbaa !136
  %57 = sext i16 %56 to i32
  %58 = sub nsw i32 %50, %57
  store i32 %58, ptr %8, align 4, !tbaa !14
  %59 = load ptr, ptr %4, align 8, !tbaa !134
  %60 = load i32, ptr %5, align 4, !tbaa !14
  %61 = add nsw i32 0, %60
  %62 = sext i32 %61 to i64
  %63 = getelementptr inbounds i16, ptr %59, i64 %62
  %64 = load i16, ptr %63, align 2, !tbaa !136
  %65 = sext i16 %64 to i32
  %66 = load ptr, ptr %4, align 8, !tbaa !134
  %67 = load i32, ptr %5, align 4, !tbaa !14
  %68 = add nsw i32 12, %67
  %69 = sext i32 %68 to i64
  %70 = getelementptr inbounds i16, ptr %66, i64 %69
  %71 = load i16, ptr %70, align 2, !tbaa !136
  %72 = sext i16 %71 to i32
  %73 = sub nsw i32 %65, %72
  store i32 %73, ptr %9, align 4, !tbaa !14
  %74 = load i32, ptr %6, align 4, !tbaa !14
  %75 = load i32, ptr %7, align 4, !tbaa !14
  %76 = add nsw i32 %74, %75
  %77 = trunc i32 %76 to i16
  %78 = load ptr, ptr %4, align 8, !tbaa !134
  %79 = load i32, ptr %5, align 4, !tbaa !14
  %80 = add nsw i32 0, %79
  %81 = sext i32 %80 to i64
  %82 = getelementptr inbounds i16, ptr %78, i64 %81
  store i16 %77, ptr %82, align 2, !tbaa !136
  %83 = load i32, ptr %9, align 4, !tbaa !14
  %84 = load i32, ptr %8, align 4, !tbaa !14
  %85 = add nsw i32 %83, %84
  %86 = trunc i32 %85 to i16
  %87 = load ptr, ptr %4, align 8, !tbaa !134
  %88 = load i32, ptr %5, align 4, !tbaa !14
  %89 = add nsw i32 4, %88
  %90 = sext i32 %89 to i64
  %91 = getelementptr inbounds i16, ptr %87, i64 %90
  store i16 %86, ptr %91, align 2, !tbaa !136
  %92 = load i32, ptr %6, align 4, !tbaa !14
  %93 = load i32, ptr %7, align 4, !tbaa !14
  %94 = sub nsw i32 %92, %93
  %95 = trunc i32 %94 to i16
  %96 = load ptr, ptr %4, align 8, !tbaa !134
  %97 = load i32, ptr %5, align 4, !tbaa !14
  %98 = add nsw i32 8, %97
  %99 = sext i32 %98 to i64
  %100 = getelementptr inbounds i16, ptr %96, i64 %99
  store i16 %95, ptr %100, align 2, !tbaa !136
  %101 = load i32, ptr %9, align 4, !tbaa !14
  %102 = load i32, ptr %8, align 4, !tbaa !14
  %103 = sub nsw i32 %101, %102
  %104 = trunc i32 %103 to i16
  %105 = load ptr, ptr %4, align 8, !tbaa !134
  %106 = load i32, ptr %5, align 4, !tbaa !14
  %107 = add nsw i32 12, %106
  %108 = sext i32 %107 to i64
  %109 = getelementptr inbounds i16, ptr %105, i64 %108
  store i16 %104, ptr %109, align 2, !tbaa !136
  br label %110

110:                                              ; preds = %13
  %111 = load i32, ptr %5, align 4, !tbaa !14
  %112 = add nsw i32 %111, 1
  store i32 %112, ptr %5, align 4, !tbaa !14
  br label %10, !llvm.loop !150

113:                                              ; preds = %10
  store i32 0, ptr %5, align 4, !tbaa !14
  br label %114

114:                                              ; preds = %237, %113
  %115 = load i32, ptr %5, align 4, !tbaa !14
  %116 = icmp slt i32 %115, 4
  br i1 %116, label %117, label %240

117:                                              ; preds = %114
  %118 = load ptr, ptr %4, align 8, !tbaa !134
  %119 = load i32, ptr %5, align 4, !tbaa !14
  %120 = mul nsw i32 %119, 4
  %121 = add nsw i32 %120, 0
  %122 = sext i32 %121 to i64
  %123 = getelementptr inbounds i16, ptr %118, i64 %122
  %124 = load i16, ptr %123, align 2, !tbaa !136
  %125 = sext i16 %124 to i32
  %126 = load ptr, ptr %4, align 8, !tbaa !134
  %127 = load i32, ptr %5, align 4, !tbaa !14
  %128 = mul nsw i32 %127, 4
  %129 = add nsw i32 %128, 3
  %130 = sext i32 %129 to i64
  %131 = getelementptr inbounds i16, ptr %126, i64 %130
  %132 = load i16, ptr %131, align 2, !tbaa !136
  %133 = sext i16 %132 to i32
  %134 = add nsw i32 %125, %133
  %135 = add nsw i32 %134, 3
  store i32 %135, ptr %6, align 4, !tbaa !14
  %136 = load ptr, ptr %4, align 8, !tbaa !134
  %137 = load i32, ptr %5, align 4, !tbaa !14
  %138 = mul nsw i32 %137, 4
  %139 = add nsw i32 %138, 1
  %140 = sext i32 %139 to i64
  %141 = getelementptr inbounds i16, ptr %136, i64 %140
  %142 = load i16, ptr %141, align 2, !tbaa !136
  %143 = sext i16 %142 to i32
  %144 = load ptr, ptr %4, align 8, !tbaa !134
  %145 = load i32, ptr %5, align 4, !tbaa !14
  %146 = mul nsw i32 %145, 4
  %147 = add nsw i32 %146, 2
  %148 = sext i32 %147 to i64
  %149 = getelementptr inbounds i16, ptr %144, i64 %148
  %150 = load i16, ptr %149, align 2, !tbaa !136
  %151 = sext i16 %150 to i32
  %152 = add nsw i32 %143, %151
  store i32 %152, ptr %7, align 4, !tbaa !14
  %153 = load ptr, ptr %4, align 8, !tbaa !134
  %154 = load i32, ptr %5, align 4, !tbaa !14
  %155 = mul nsw i32 %154, 4
  %156 = add nsw i32 %155, 1
  %157 = sext i32 %156 to i64
  %158 = getelementptr inbounds i16, ptr %153, i64 %157
  %159 = load i16, ptr %158, align 2, !tbaa !136
  %160 = sext i16 %159 to i32
  %161 = load ptr, ptr %4, align 8, !tbaa !134
  %162 = load i32, ptr %5, align 4, !tbaa !14
  %163 = mul nsw i32 %162, 4
  %164 = add nsw i32 %163, 2
  %165 = sext i32 %164 to i64
  %166 = getelementptr inbounds i16, ptr %161, i64 %165
  %167 = load i16, ptr %166, align 2, !tbaa !136
  %168 = sext i16 %167 to i32
  %169 = sub nsw i32 %160, %168
  store i32 %169, ptr %8, align 4, !tbaa !14
  %170 = load ptr, ptr %4, align 8, !tbaa !134
  %171 = load i32, ptr %5, align 4, !tbaa !14
  %172 = mul nsw i32 %171, 4
  %173 = add nsw i32 %172, 0
  %174 = sext i32 %173 to i64
  %175 = getelementptr inbounds i16, ptr %170, i64 %174
  %176 = load i16, ptr %175, align 2, !tbaa !136
  %177 = sext i16 %176 to i32
  %178 = load ptr, ptr %4, align 8, !tbaa !134
  %179 = load i32, ptr %5, align 4, !tbaa !14
  %180 = mul nsw i32 %179, 4
  %181 = add nsw i32 %180, 3
  %182 = sext i32 %181 to i64
  %183 = getelementptr inbounds i16, ptr %178, i64 %182
  %184 = load i16, ptr %183, align 2, !tbaa !136
  %185 = sext i16 %184 to i32
  %186 = sub nsw i32 %177, %185
  %187 = add nsw i32 %186, 3
  store i32 %187, ptr %9, align 4, !tbaa !14
  %188 = load ptr, ptr %4, align 8, !tbaa !134
  %189 = load i32, ptr %5, align 4, !tbaa !14
  %190 = mul nsw i32 %189, 4
  %191 = sext i32 %190 to i64
  %192 = getelementptr inbounds i16, ptr %188, i64 %191
  store i64 0, ptr %192, align 8, !tbaa !18
  %193 = load i32, ptr %6, align 4, !tbaa !14
  %194 = load i32, ptr %7, align 4, !tbaa !14
  %195 = add nsw i32 %193, %194
  %196 = ashr i32 %195, 3
  %197 = trunc i32 %196 to i16
  %198 = load ptr, ptr %3, align 8, !tbaa !134
  %199 = load i32, ptr %5, align 4, !tbaa !14
  %200 = sext i32 %199 to i64
  %201 = getelementptr inbounds [4 x [16 x i16]], ptr %198, i64 %200
  %202 = getelementptr inbounds [4 x [16 x i16]], ptr %201, i64 0, i64 0
  %203 = getelementptr inbounds [16 x i16], ptr %202, i64 0, i64 0
  store i16 %197, ptr %203, align 2, !tbaa !136
  %204 = load i32, ptr %9, align 4, !tbaa !14
  %205 = load i32, ptr %8, align 4, !tbaa !14
  %206 = add nsw i32 %204, %205
  %207 = ashr i32 %206, 3
  %208 = trunc i32 %207 to i16
  %209 = load ptr, ptr %3, align 8, !tbaa !134
  %210 = load i32, ptr %5, align 4, !tbaa !14
  %211 = sext i32 %210 to i64
  %212 = getelementptr inbounds [4 x [16 x i16]], ptr %209, i64 %211
  %213 = getelementptr inbounds [4 x [16 x i16]], ptr %212, i64 0, i64 1
  %214 = getelementptr inbounds [16 x i16], ptr %213, i64 0, i64 0
  store i16 %208, ptr %214, align 2, !tbaa !136
  %215 = load i32, ptr %6, align 4, !tbaa !14
  %216 = load i32, ptr %7, align 4, !tbaa !14
  %217 = sub nsw i32 %215, %216
  %218 = ashr i32 %217, 3
  %219 = trunc i32 %218 to i16
  %220 = load ptr, ptr %3, align 8, !tbaa !134
  %221 = load i32, ptr %5, align 4, !tbaa !14
  %222 = sext i32 %221 to i64
  %223 = getelementptr inbounds [4 x [16 x i16]], ptr %220, i64 %222
  %224 = getelementptr inbounds [4 x [16 x i16]], ptr %223, i64 0, i64 2
  %225 = getelementptr inbounds [16 x i16], ptr %224, i64 0, i64 0
  store i16 %219, ptr %225, align 2, !tbaa !136
  %226 = load i32, ptr %9, align 4, !tbaa !14
  %227 = load i32, ptr %8, align 4, !tbaa !14
  %228 = sub nsw i32 %226, %227
  %229 = ashr i32 %228, 3
  %230 = trunc i32 %229 to i16
  %231 = load ptr, ptr %3, align 8, !tbaa !134
  %232 = load i32, ptr %5, align 4, !tbaa !14
  %233 = sext i32 %232 to i64
  %234 = getelementptr inbounds [4 x [16 x i16]], ptr %231, i64 %233
  %235 = getelementptr inbounds [4 x [16 x i16]], ptr %234, i64 0, i64 3
  %236 = getelementptr inbounds [16 x i16], ptr %235, i64 0, i64 0
  store i16 %230, ptr %236, align 2, !tbaa !136
  br label %237

237:                                              ; preds = %117
  %238 = load i32, ptr %5, align 4, !tbaa !14
  %239 = add nsw i32 %238, 1
  store i32 %239, ptr %5, align 4, !tbaa !14
  br label %114, !llvm.loop !151

240:                                              ; preds = %114
  call void @llvm.lifetime.end.p0(i64 4, ptr %9) #6
  call void @llvm.lifetime.end.p0(i64 4, ptr %8) #6
  call void @llvm.lifetime.end.p0(i64 4, ptr %7) #6
  call void @llvm.lifetime.end.p0(i64 4, ptr %6) #6
  call void @llvm.lifetime.end.p0(i64 4, ptr %5) #6
  ret void
}