; Function Attrs: nofree norecurse nosync nounwind memory(argmem: readwrite) uwtable
define internal void @vp8_luma_dc_wht_c(ptr noundef writeonly captures(none) %0, ptr noundef captures(none) %1) #1 {
  br label %3

3:                                                ; preds = %2, %3
  %indvars.iv = phi i64 [ 0, %2 ], [ %indvars.iv.next, %3 ]
  %4 = getelementptr inbounds nuw i16, ptr %1, i64 %indvars.iv
  %5 = load i16, ptr %4, align 2, !tbaa !126
  %6 = zext i16 %5 to i32
  %7 = getelementptr inbounds nuw i8, ptr %4, i64 24
  %8 = load i16, ptr %7, align 2, !tbaa !126
  %9 = zext i16 %8 to i32
  %10 = add nuw nsw i32 %9, %6
  %11 = getelementptr inbounds nuw i8, ptr %4, i64 8
  %12 = load i16, ptr %11, align 2, !tbaa !126
  %13 = zext i16 %12 to i32
  %14 = getelementptr inbounds nuw i8, ptr %4, i64 16
  %15 = load i16, ptr %14, align 2, !tbaa !126
  %16 = zext i16 %15 to i32
  %17 = add nuw nsw i32 %16, %13
  %18 = sub nsw i32 %13, %16
  %19 = sub nsw i32 %6, %9
  %20 = add nuw nsw i32 %17, %10
  %21 = trunc i32 %20 to i16
  store i16 %21, ptr %4, align 2, !tbaa !126
  %22 = add nsw i32 %18, %19
  %23 = trunc i32 %22 to i16
  store i16 %23, ptr %11, align 2, !tbaa !126
  %24 = sub nsw i32 %10, %17
  %25 = trunc i32 %24 to i16
  store i16 %25, ptr %14, align 2, !tbaa !126
  %26 = sub nsw i32 %19, %18
  %27 = trunc i32 %26 to i16
  store i16 %27, ptr %7, align 2, !tbaa !126
  %indvars.iv.next = add nuw nsw i64 %indvars.iv, 1
  %exitcond.not = icmp eq i64 %indvars.iv.next, 4
  br i1 %exitcond.not, label %.preheader, label %3, !llvm.loop !144

.preheader:                                       ; preds = %3, %.preheader
  %indvars.iv72 = phi i64 [ %indvars.iv.next73, %.preheader ], [ 0, %3 ]
  %.idx = shl nuw nsw i64 %indvars.iv72, 3
  %28 = getelementptr inbounds nuw i8, ptr %1, i64 %.idx
  %29 = load i16, ptr %28, align 2, !tbaa !126
  %30 = sext i16 %29 to i32
  %31 = getelementptr inbounds nuw i8, ptr %28, i64 6
  %32 = load i16, ptr %31, align 2, !tbaa !126
  %33 = sext i16 %32 to i32
  %34 = add nsw i32 %30, 3
  %35 = add nsw i32 %34, %33
  %36 = getelementptr inbounds nuw i8, ptr %28, i64 2
  %37 = load i16, ptr %36, align 2, !tbaa !126
  %38 = sext i16 %37 to i32
  %39 = getelementptr inbounds nuw i8, ptr %28, i64 4
  %40 = load i16, ptr %39, align 2, !tbaa !126
  %41 = sext i16 %40 to i32
  %42 = add nsw i32 %41, %38
  %43 = sub nsw i32 %38, %41
  %44 = sub nsw i32 %30, %33
  %45 = add nsw i32 %44, 3
  store i64 0, ptr %28, align 8, !tbaa !10
  %46 = add nsw i32 %42, %35
  %47 = lshr i32 %46, 3
  %48 = trunc i32 %47 to i16
  %49 = getelementptr inbounds nuw [4 x [16 x i16]], ptr %0, i64 %indvars.iv72
  store i16 %48, ptr %49, align 2, !tbaa !126
  %50 = add nsw i32 %43, %45
  %51 = lshr i32 %50, 3
  %52 = trunc i32 %51 to i16
  %53 = getelementptr inbounds nuw i8, ptr %49, i64 32
  store i16 %52, ptr %53, align 2, !tbaa !126
  %54 = sub nsw i32 %35, %42
  %55 = lshr i32 %54, 3
  %56 = trunc i32 %55 to i16
  %57 = getelementptr inbounds nuw i8, ptr %49, i64 64
  store i16 %56, ptr %57, align 2, !tbaa !126
  %58 = sub nsw i32 %45, %43
  %59 = lshr i32 %58, 3
  %60 = trunc i32 %59 to i16
  %61 = getelementptr inbounds nuw i8, ptr %49, i64 96
  store i16 %60, ptr %61, align 2, !tbaa !126
  %indvars.iv.next73 = add nuw nsw i64 %indvars.iv72, 1
  %exitcond75.not = icmp eq i64 %indvars.iv.next73, 4
  br i1 %exitcond75.not, label %62, label %.preheader, !llvm.loop !145

62:                                               ; preds = %.preheader
  ret void
}